target datalayout = "e-m:e-p270:32:32-p271:32:32-p272:64:64-i64:64-i128:128-f80:128-n8:16:32:64-S128"
target triple = "x86_64-unknown-linux-gnu"

%"class.smt::fingerprint" = type { ptr, i32, ptr, i32, ptr }

; Function Attrs: mustprogress nounwind uwtable
define linkonce_odr hidden noundef ptr @_ZNK3smt11fingerprint7get_argEj(ptr noundef nonnull align 8 dereferenceable(40) %this, i32 noundef %idx) #4 comdat align 2 {
entry:
  %this.addr = alloca ptr, align 8
  %idx.addr = alloca i32, align 4
  store ptr %this, ptr %this.addr, align 8
  store i32 %idx, ptr %idx.addr, align 4
  %this1 = load ptr, ptr %this.addr, align 8
  %m_args = getelementptr inbounds %"class.smt::fingerprint", ptr %this1, i32 0, i32 4
  %0 = load ptr, ptr %m_args, align 8
  %1 = load i32, ptr %idx.addr, align 4
  %idxprom = zext i32 %1 to i64
  %arrayidx = getelementptr inbounds ptr, ptr %0, i64 %idxprom
  %2 = load ptr, ptr %arrayidx, align 8
  ret ptr %2
}

; Function Attrs: mustprogress nounwind uwtable
define linkonce_odr hidden noundef i32 @_ZNK3smt11fingerprint12get_num_argsEv(ptr noundef nonnull align 8 dereferenceable(40) %this) #4 comdat align 2 {
entry:
  %this.addr = alloca ptr, align 8
  store ptr %this, ptr %this.addr, align 8
  %this1 = load ptr, ptr %this.addr, align 8
  %m_num_args = getelementptr inbounds %"class.smt::fingerprint", ptr %this1, i32 0, i32 3
  %0 = load i32, ptr %m_num_args, align 8
  ret i32 %0
}

; Function Attrs: mustprogress nounwind uwtable
define linkonce_odr hidden noundef ptr @_ZNK3smt11fingerprint8get_dataEv(ptr noundef nonnull align 8 dereferenceable(40) %this) #4 comdat align 2 {
entry:
  %this.addr = alloca ptr, align 8
  store ptr %this, ptr %this.addr, align 8
  %this1 = load ptr, ptr %this.addr, align 8
  %m_data = getelementptr inbounds %"class.smt::fingerprint", ptr %this1, i32 0, i32 0
  %0 = load ptr, ptr %m_data, align 8
  ret ptr %0
}

; Function Attrs: mustprogress uwtable
define hidden noundef zeroext i1 @_ZNK3smt15fingerprint_set19fingerprint_eq_procclEPKNS_11fingerprintES4_(ptr noundef nonnull align 1 dereferenceable(1) %this, ptr noundef %f1, ptr noundef %f2) #5 align 2 {
entry:
  %retval = alloca i1, align 1
  %this.addr = alloca ptr, align 8
  %f1.addr = alloca ptr, align 8
  %f2.addr = alloca ptr, align 8
  %n = alloca i32, align 4
  %i = alloca i32, align 4
  store ptr %this, ptr %this.addr, align 8
  store ptr %f1, ptr %f1.addr, align 8
  store ptr %f2, ptr %f2.addr, align 8
  %0 = load ptr, ptr %f1.addr, align 8
  %call = call noundef ptr @_ZNK3smt11fingerprint8get_dataEv(ptr noundef nonnull align 8 dereferenceable(40) %0)
  %1 = load ptr, ptr %f2.addr, align 8
  %call2 = call noundef ptr @_ZNK3smt11fingerprint8get_dataEv(ptr noundef nonnull align 8 dereferenceable(40) %1)
  %cmp = icmp ne ptr %call, %call2
  br i1 %cmp, label %if.then, label %if.end

if.then:                                          ; preds = %entry
  store i1 false, ptr %retval, align 1
  br label %return

if.end:                                           ; preds = %entry
  %2 = load ptr, ptr %f1.addr, align 8
  %call3 = call noundef i32 @_ZNK3smt11fingerprint12get_num_argsEv(ptr noundef nonnull align 8 dereferenceable(40) %2)
  %3 = load ptr, ptr %f2.addr, align 8
  %call4 = call noundef i32 @_ZNK3smt11fingerprint12get_num_argsEv(ptr noundef nonnull align 8 dereferenceable(40) %3)
  %cmp5 = icmp ne i32 %call3, %call4
  br i1 %cmp5, label %if.then6, label %if.end7

if.then6:                                         ; preds = %if.end
  store i1 false, ptr %retval, align 1
  br label %return

if.end7:                                          ; preds = %if.end
  %4 = load ptr, ptr %f1.addr, align 8
  %call8 = call noundef i32 @_ZNK3smt11fingerprint12get_num_argsEv(ptr noundef nonnull align 8 dereferenceable(40) %4)
  store i32 %call8, ptr %n, align 4
  store i32 0, ptr %i, align 4
  br label %for.cond

for.cond:                                         ; preds = %for.inc, %if.end7
  %5 = load i32, ptr %i, align 4
  %6 = load i32, ptr %n, align 4
  %cmp9 = icmp ult i32 %5, %6
  br i1 %cmp9, label %for.body, label %for.end

for.body:                                         ; preds = %for.cond
  %7 = load ptr, ptr %f1.addr, align 8
  %8 = load i32, ptr %i, align 4
  %call10 = call noundef ptr @_ZNK3smt11fingerprint7get_argEj(ptr noundef nonnull align 8 dereferenceable(40) %7, i32 noundef %8)
  %9 = load ptr, ptr %f2.addr, align 8
  %10 = load i32, ptr %i, align 4
  %call11 = call noundef ptr @_ZNK3smt11fingerprint7get_argEj(ptr noundef nonnull align 8 dereferenceable(40) %9, i32 noundef %10)
  %cmp12 = icmp ne ptr %call10, %call11
  br i1 %cmp12, label %if.then13, label %if.end14

if.then13:                                        ; preds = %for.body
  store i1 false, ptr %retval, align 1
  br label %return

if.end14:                                         ; preds = %for.body
  br label %for.inc

for.inc:                                          ; preds = %if.end14
  %11 = load i32, ptr %i, align 4
  %inc = add i32 %11, 1
  store i32 %inc, ptr %i, align 4
  br label %for.cond, !llvm.loop !4

for.end:                                          ; preds = %for.cond
  store i1 true, ptr %retval, align 1
  br label %return

return:                                           ; preds = %for.end, %if.then13, %if.then6, %if.then
  %12 = load i1, ptr %retval, align 1
  ret i1 %12
}