; Function Attrs: mustprogress nofree norecurse nosync nounwind willreturn memory(read, inaccessiblemem: none) uwtable
define hidden noundef zeroext i1 @_ZNK3smt15fingerprint_set19fingerprint_eq_procclEPKNS_11fingerprintES4_(ptr nocapture noundef nonnull readnone align 1 dereferenceable(1) %this, ptr nocapture noundef readonly %f1, ptr nocapture noundef readonly %f2) local_unnamed_addr #5 align 2 {
entry:
  %0 = load ptr, ptr %f1, align 8
  %1 = load ptr, ptr %f2, align 8
  %cmp.not = icmp eq ptr %0, %1
  br i1 %cmp.not, label %if.end, label %return

if.end:                                           ; preds = %entry
  %m_num_args.i = getelementptr inbounds i8, ptr %f1, i64 24
  %2 = load i32, ptr %m_num_args.i, align 8
  %m_num_args.i9 = getelementptr inbounds i8, ptr %f2, i64 24
  %3 = load i32, ptr %m_num_args.i9, align 8
  %cmp5.not = icmp eq i32 %2, %3
  br i1 %cmp5.not, label %for.cond.preheader, label %return

for.cond.preheader:                               ; preds = %if.end
  %cmp914.not = icmp eq i32 %2, 0
  br i1 %cmp914.not, label %return, label %for.body.lr.ph

for.body.lr.ph:                                   ; preds = %for.cond.preheader
  %m_args.i = getelementptr inbounds i8, ptr %f1, i64 32
  %4 = load ptr, ptr %m_args.i, align 8
  %m_args.i11 = getelementptr inbounds i8, ptr %f2, i64 32
  %5 = load ptr, ptr %m_args.i11, align 8
  %wide.trip.count = zext i32 %2 to i64
  br label %for.body

for.body:                                         ; preds = %for.body, %for.body.lr.ph
  %indvars.iv = phi i64 [ 0, %for.body.lr.ph ], [ %indvars.iv.next, %for.body ]
  %arrayidx.i = getelementptr inbounds ptr, ptr %4, i64 %indvars.iv
  %6 = load ptr, ptr %arrayidx.i, align 8
  %arrayidx.i13 = getelementptr inbounds ptr, ptr %5, i64 %indvars.iv
  %7 = load ptr, ptr %arrayidx.i13, align 8
  %cmp12.not = icmp eq ptr %6, %7
  %indvars.iv.next = add nuw nsw i64 %indvars.iv, 1
  %exitcond.not = icmp ne i64 %indvars.iv.next, %wide.trip.count
  %or.cond.not = select i1 %cmp12.not, i1 %exitcond.not, i1 false
  br i1 %or.cond.not, label %for.body, label %return, !llvm.loop !4

return:                                           ; preds = %for.body, %for.cond.preheader, %if.end, %entry
  %retval.0 = phi i1 [ false, %entry ], [ false, %if.end ], [ true, %for.cond.preheader ], [ %cmp12.not, %for.body ]
  ret i1 %retval.0
}